; Function Attrs: null_pointer_is_valid sspstrong uwtable
define internal i32 @dissect_h245_IndicationMessage(ptr noundef %0, i32 noundef %1, ptr noundef %2, ptr noundef %3, i32 noundef %4) #1 {
  %6 = alloca i32, align 4
  call void @llvm.lifetime.start.p0(i64 4, ptr nonnull %6) #13
  %7 = load i32, ptr @ett_h245_IndicationMessage, align 4
  %8 = call i32 @dissect_per_choice(ptr noundef %0, i32 noundef %1, ptr noundef %2, ptr noundef %3, i32 noundef %4, i32 noundef %7, ptr noundef nonnull @IndicationMessage_choice, ptr noundef nonnull %6)
  %9 = getelementptr inbounds nuw i8, ptr %2, i64 16
  %10 = load ptr, ptr %9, align 8
  %11 = getelementptr inbounds nuw i8, ptr %10, i64 8
  %12 = load ptr, ptr %11, align 8
  %.val = load i32, ptr %6, align 4
  %13 = load i8, ptr @h245_shorttypes, align 1, !range !6, !noundef !7
  %14 = icmp eq i8 %13, 0
  %..i = select i1 %14, ptr @h245_IndicationMessage_vals, ptr @h245_IndicationMessage_short_vals
  %15 = load i8, ptr @info_col_fmt_prepend, align 1, !range !6, !noundef !7
  %16 = icmp eq i8 %15, 0
  %17 = call ptr @val_to_str_const(i32 noundef %.val, ptr noundef nonnull %..i, ptr noundef nonnull @.str.2977)
  br i1 %16, label %18, label %19

18:                                               ; preds = %5
  call void (ptr, i32, ptr, ...) @col_append_fstr(ptr noundef %12, i32 noundef 25, ptr noundef nonnull @.str.3268, ptr noundef %17)
  br label %print_info_column.exit

19:                                               ; preds = %5
  call void (ptr, i32, ptr, ...) @col_prepend_fstr(ptr noundef %12, i32 noundef 25, ptr noundef nonnull @.str.3268, ptr noundef %17)
  br label %print_info_column.exit

print_info_column.exit:                           ; preds = %18, %19
  %20 = load ptr, ptr %9, align 8
  %21 = getelementptr inbounds nuw i8, ptr %20, i64 8
  %22 = load ptr, ptr %21, align 8
  call void @col_set_fence(ptr noundef %22, i32 noundef 25)
  %23 = load ptr, ptr @h245_pi, align 8
  %.not = icmp eq ptr %23, null
  br i1 %.not, label %37, label %24

24:                                               ; preds = %print_info_column.exit
  %25 = getelementptr inbounds nuw i8, ptr %23, i64 4
  %char0 = load i8, ptr %25, align 1
  %26 = icmp eq i8 %char0, 0
  br i1 %26, label %27, label %31

27:                                               ; preds = %24
  %28 = load i32, ptr %6, align 4
  %29 = call ptr @val_to_str_const(i32 noundef %28, ptr noundef nonnull @h245_IndicationMessage_short_vals, ptr noundef nonnull @.str.3230)
  %30 = call i32 (ptr, i64, i32, i64, ptr, ...) @__snprintf_chk(ptr noundef nonnull %25, i64 noundef 50, i32 noundef 2, i64 noundef 50, ptr noundef nonnull @.str.3052, ptr noundef %29)
  %.pre = load ptr, ptr @h245_pi, align 8
  br label %31

31:                                               ; preds = %27, %24
  %32 = phi ptr [ %.pre, %27 ], [ %23, %24 ]
  %33 = getelementptr inbounds nuw i8, ptr %32, i64 54
  %34 = load i32, ptr %6, align 4
  %35 = call ptr @val_to_str_const(i32 noundef %34, ptr noundef nonnull @h245_IndicationMessage_vals, ptr noundef nonnull @.str.2977)
  %36 = call i64 @g_strlcat(ptr noundef nonnull %33, ptr noundef %35, i64 noundef 50)
  br label %37

37:                                               ; preds = %31, %print_info_column.exit
  call void @llvm.lifetime.end.p0(i64 4, ptr nonnull %6) #13
  ret i32 %8
}